target datalayout = "e-m:e-p270:32:32-p271:32:32-p272:64:64-i64:64-i128:128-f80:128-n8:16:32:64-S128"
target triple = "x86_64-pc-linux-gnu"

%struct.sentinelRedisInstance = type { i32, ptr, ptr, i64, ptr, ptr, i64, i64, i64, i64, i64, i64, i64, i64, i64, ptr, i32, i64, i64, ptr, ptr, i32, i32, ptr, ptr, i64, i32, i32, i64, ptr, ptr, i32, i32, i64, ptr, i64, i64, i32, i64, i64, i64, i64, ptr, ptr, ptr, ptr }

; Function Attrs: nounwind uwtable
define dso_local i32 @sentinelRedisInstanceNoDownFor(ptr noundef %0, i64 noundef %1) #0 {
  %3 = alloca ptr, align 8
  %4 = alloca i64, align 8
  %5 = alloca i64, align 8
  store ptr %0, ptr %3, align 8, !tbaa !11
  store i64 %1, ptr %4, align 8, !tbaa !119
  call void @llvm.lifetime.start.p0(i64 8, ptr %5) #16
  %6 = load ptr, ptr %3, align 8, !tbaa !11
  %7 = getelementptr inbounds nuw %struct.sentinelRedisInstance, ptr %6, i32 0, i32 9
  %8 = load i64, ptr %7, align 8, !tbaa !178
  store i64 %8, ptr %5, align 8, !tbaa !119
  %9 = load ptr, ptr %3, align 8, !tbaa !11
  %10 = getelementptr inbounds nuw %struct.sentinelRedisInstance, ptr %9, i32 0, i32 10
  %11 = load i64, ptr %10, align 8, !tbaa !179
  %12 = load i64, ptr %5, align 8, !tbaa !119
  %13 = icmp sgt i64 %11, %12
  br i1 %13, label %14, label %18

14:                                               ; preds = %2
  %15 = load ptr, ptr %3, align 8, !tbaa !11
  %16 = getelementptr inbounds nuw %struct.sentinelRedisInstance, ptr %15, i32 0, i32 10
  %17 = load i64, ptr %16, align 8, !tbaa !179
  store i64 %17, ptr %5, align 8, !tbaa !119
  br label %18

18:                                               ; preds = %14, %2
  %19 = load i64, ptr %5, align 8, !tbaa !119
  %20 = icmp eq i64 %19, 0
  br i1 %20, label %27, label %21

21:                                               ; preds = %18
  %22 = call i64 @mstime()
  %23 = load i64, ptr %5, align 8, !tbaa !119
  %24 = sub nsw i64 %22, %23
  %25 = load i64, ptr %4, align 8, !tbaa !119
  %26 = icmp sgt i64 %24, %25
  br label %27

27:                                               ; preds = %21, %18
  %28 = phi i1 [ true, %18 ], [ %26, %21 ]
  %29 = zext i1 %28 to i32
  call void @llvm.lifetime.end.p0(i64 8, ptr %5) #16
  ret i32 %29
}