; Function Attrs: nounwind uwtable
define dso_local range(i32 0, 2) i32 @sentinelRedisInstanceNoDownFor(ptr noundef readonly captures(none) %0, i64 noundef %1) local_unnamed_addr #0 {
  %3 = getelementptr inbounds nuw i8, ptr %0, i64 72
  %4 = load i64, ptr %3, align 8, !tbaa !175
  %5 = getelementptr inbounds nuw i8, ptr %0, i64 80
  %6 = load i64, ptr %5, align 8, !tbaa !176
  %spec.select = tail call i64 @llvm.smax.i64(i64 %6, i64 %4)
  %7 = icmp eq i64 %spec.select, 0
  br i1 %7, label %13, label %8

8:                                                ; preds = %2
  %9 = tail call i64 @mstime() #30
  %10 = sub nsw i64 %9, %spec.select
  %11 = icmp sgt i64 %10, %1
  %12 = zext i1 %11 to i32
  br label %13

13:                                               ; preds = %8, %2
  %14 = phi i32 [ 1, %2 ], [ %12, %8 ]
  ret i32 %14
}